target datalayout = "e-m:e-p270:32:32-p271:32:32-p272:64:64-i64:64-i128:128-f80:128-n8:16:32:64-S128"
target triple = "x86_64-pc-linux-gnu"

; Function Attrs: mustprogress nounwind uwtable
define noundef float @_ZN32pxrInternal_v0_24__pxrReserved__8pxr_half4half8overflowEv() #0 align 2 {
  %1 = alloca float, align 4
  %2 = alloca i32, align 4
  store volatile float 1.000000e+10, ptr %1, align 4
  store i32 0, ptr %2, align 4
  br label %3

3:                                                ; preds = %10, %0
  %4 = load i32, ptr %2, align 4
  %5 = icmp slt i32 %4, 10
  br i1 %5, label %6, label %13

6:                                                ; preds = %3
  %7 = load volatile float, ptr %1, align 4
  %8 = load volatile float, ptr %1, align 4
  %9 = fmul float %8, %7
  store volatile float %9, ptr %1, align 4
  br label %10

10:                                               ; preds = %6
  %11 = load i32, ptr %2, align 4
  %12 = add nsw i32 %11, 1
  store i32 %12, ptr %2, align 4
  br label %3, !llvm.loop !4

13:                                               ; preds = %3
  %14 = load volatile float, ptr %1, align 4
  ret float %14
}