; Function Attrs: mustprogress nofree norecurse nounwind memory(inaccessiblemem: readwrite) uwtable
define noundef float @_ZN32pxrInternal_v0_24__pxrReserved__8pxr_half4half8overflowEv() local_unnamed_addr #0 align 2 {
  %1 = alloca float, align 4
  store volatile float 1.000000e+10, ptr %1, align 4
  br label %2

2:                                                ; preds = %0, %2
  %.04 = phi i32 [ 0, %0 ], [ %4, %2 ]
  %.0..0..0..0. = load volatile float, ptr %1, align 4
  %.0..0..0..0.2 = load volatile float, ptr %1, align 4
  %3 = fmul float %.0..0..0..0., %.0..0..0..0.2
  store volatile float %3, ptr %1, align 4
  %4 = add nuw nsw i32 %.04, 1
  %exitcond.not = icmp eq i32 %4, 10
  br i1 %exitcond.not, label %5, label %2, !llvm.loop !4

5:                                                ; preds = %2
  %.0..0..0..0.3 = load volatile float, ptr %1, align 4
  ret float %.0..0..0..0.3
}